; Function Attrs: mustprogress uwtable
define void @_ZNK7openvdb5v11_02io4File4copyEv(ptr noalias nocapture writeonly sret(%"class.std::shared_ptr.32") align 8 %agg.result, ptr noundef nonnull align 8 dereferenceable(80) %this) unnamed_addr #5 align 2 personality ptr @__gxx_personality_v0 {
entry:
  %call = tail call noalias noundef nonnull dereferenceable(80) ptr @_Znwm(i64 noundef 80) #27
  invoke void @_ZN7openvdb5v11_02io4FileC1ERKS2_(ptr noundef nonnull align 8 dereferenceable(80) %call, ptr noundef nonnull align 8 dereferenceable(80) %this)
          to label %invoke.cont unwind label %lpad

invoke.cont:                                      ; preds = %entry
  store ptr %call, ptr %agg.result, align 8
  %_M_refcount.i.i = getelementptr inbounds i8, ptr %agg.result, i64 8
  store ptr null, ptr %_M_refcount.i.i, align 8
  %call.i.i.i.i = invoke noalias noundef nonnull dereferenceable(24) ptr @_Znwm(i64 noundef 24) #27
          to label %_ZNSt10shared_ptrIN7openvdb5v11_02io7ArchiveEEC2INS2_4FileEvEEPT_.exit unwind label %lpad.i.i.i.i

lpad.i.i.i.i:                                     ; preds = %invoke.cont
  %0 = landingpad { ptr, i32 }
          catch ptr null
  %1 = extractvalue { ptr, i32 } %0, 0
  %2 = tail call ptr @__cxa_begin_catch(ptr %1) #28
  %vtable.i.i.i.i = load ptr, ptr %call, align 8
  %vfn.i.i.i.i = getelementptr inbounds i8, ptr %vtable.i.i.i.i, i64 8
  %3 = load ptr, ptr %vfn.i.i.i.i, align 8
  tail call void %3(ptr noundef nonnull align 8 dereferenceable(80) %call) #28
  invoke void @__cxa_rethrow() #30
          to label %unreachable.i.i.i.i unwind label %lpad3.i.i.i.i

lpad3.i.i.i.i:                                    ; preds = %lpad.i.i.i.i
  %4 = landingpad { ptr, i32 }
          cleanup
  invoke void @__cxa_end_catch()
          to label %common.resume unwind label %terminate.lpad.i.i.i.i

common.resume:                                    ; preds = %lpad3.i.i.i.i, %lpad
  %common.resume.op = phi { ptr, i32 } [ %7, %lpad ], [ %4, %lpad3.i.i.i.i ]
  resume { ptr, i32 } %common.resume.op

terminate.lpad.i.i.i.i:                           ; preds = %lpad3.i.i.i.i
  %5 = landingpad { ptr, i32 }
          catch ptr null
  %6 = extractvalue { ptr, i32 } %5, 0
  tail call void @__clang_call_terminate(ptr %6) #31
  unreachable

unreachable.i.i.i.i:                              ; preds = %lpad.i.i.i.i
  unreachable

_ZNSt10shared_ptrIN7openvdb5v11_02io7ArchiveEEC2INS2_4FileEvEEPT_.exit: ; preds = %invoke.cont
  %_M_use_count.i.i.i.i.i.i = getelementptr inbounds i8, ptr %call.i.i.i.i, i64 8
  store i32 1, ptr %_M_use_count.i.i.i.i.i.i, align 8
  %_M_weak_count.i.i.i.i.i.i = getelementptr inbounds i8, ptr %call.i.i.i.i, i64 12
  store i32 1, ptr %_M_weak_count.i.i.i.i.i.i, align 4
  store ptr getelementptr inbounds ({ [7 x ptr] }, ptr @_ZTVSt15_Sp_counted_ptrIPN7openvdb5v11_02io4FileELN9__gnu_cxx12_Lock_policyE2EE, i64 0, i32 0, i64 2), ptr %call.i.i.i.i, align 8
  %_M_ptr.i.i.i.i.i = getelementptr inbounds i8, ptr %call.i.i.i.i, i64 16
  store ptr %call, ptr %_M_ptr.i.i.i.i.i, align 8
  store ptr %call.i.i.i.i, ptr %_M_refcount.i.i, align 8
  ret void

lpad:                                             ; preds = %entry
  %7 = landingpad { ptr, i32 }
          cleanup
  tail call void @_ZdlPv(ptr noundef nonnull %call) #29
  br label %common.resume
}